target datalayout = "e-m:e-p270:32:32-p271:32:32-p272:64:64-i64:64-i128:128-f80:128-n8:16:32:64-S128"
target triple = "x86_64-pc-linux-gnu"

%struct.ZSTDv06_DCtx_s = type { [513 x i32], [257 x i32], [513 x i32], [4097 x i32], ptr, ptr, ptr, ptr, i64, i64, %struct.ZSTDv06_frameParams_s, i32, i32, i32, ptr, i64, [131080 x i8], [13 x i8] }
%struct.ZSTDv06_frameParams_s = type { i64, i32 }

; Function Attrs: nounwind uwtable
define i64 @ZSTDv06_decompressBegin(ptr noundef %0) #0 {
  %2 = alloca ptr, align 8
  store ptr %0, ptr %2, align 8, !tbaa !75
  %3 = load ptr, ptr %2, align 8, !tbaa !75
  %4 = getelementptr inbounds nuw %struct.ZSTDv06_DCtx_s, ptr %3, i32 0, i32 8
  store i64 5, ptr %4, align 8, !tbaa !77
  %5 = load ptr, ptr %2, align 8, !tbaa !75
  %6 = getelementptr inbounds nuw %struct.ZSTDv06_DCtx_s, ptr %5, i32 0, i32 12
  store i32 0, ptr %6, align 4, !tbaa !81
  %7 = load ptr, ptr %2, align 8, !tbaa !75
  %8 = getelementptr inbounds nuw %struct.ZSTDv06_DCtx_s, ptr %7, i32 0, i32 4
  store ptr null, ptr %8, align 8, !tbaa !82
  %9 = load ptr, ptr %2, align 8, !tbaa !75
  %10 = getelementptr inbounds nuw %struct.ZSTDv06_DCtx_s, ptr %9, i32 0, i32 5
  store ptr null, ptr %10, align 8, !tbaa !83
  %11 = load ptr, ptr %2, align 8, !tbaa !75
  %12 = getelementptr inbounds nuw %struct.ZSTDv06_DCtx_s, ptr %11, i32 0, i32 6
  store ptr null, ptr %12, align 8, !tbaa !84
  %13 = load ptr, ptr %2, align 8, !tbaa !75
  %14 = getelementptr inbounds nuw %struct.ZSTDv06_DCtx_s, ptr %13, i32 0, i32 7
  store ptr null, ptr %14, align 8, !tbaa !85
  %15 = load ptr, ptr %2, align 8, !tbaa !75
  %16 = getelementptr inbounds nuw %struct.ZSTDv06_DCtx_s, ptr %15, i32 0, i32 3
  %17 = getelementptr inbounds [4097 x i32], ptr %16, i64 0, i64 0
  store i32 12, ptr %17, align 4, !tbaa !15
  %18 = load ptr, ptr %2, align 8, !tbaa !75
  %19 = getelementptr inbounds nuw %struct.ZSTDv06_DCtx_s, ptr %18, i32 0, i32 13
  store i32 0, ptr %19, align 8, !tbaa !86
  ret i64 0
}