; Function Attrs: mustprogress nofree norecurse nosync nounwind willreturn memory(argmem: write) uwtable
define noundef i64 @ZSTDv06_decompressBegin(ptr noundef writeonly captures(none) initializes((5132, 5136), (21520, 21560), (21588, 21596)) %0) local_unnamed_addr #9 {
  %2 = getelementptr inbounds nuw i8, ptr %0, i64 21552
  store i64 5, ptr %2, align 8, !tbaa !69
  %3 = getelementptr inbounds nuw i8, ptr %0, i64 21588
  store i32 0, ptr %3, align 4, !tbaa !73
  %4 = getelementptr inbounds nuw i8, ptr %0, i64 21520
  %5 = getelementptr inbounds nuw i8, ptr %0, i64 5132
  tail call void @llvm.memset.p0.i64(ptr noundef nonnull align 8 dereferenceable(32) %4, i8 0, i64 32, i1 false)
  store i32 12, ptr %5, align 4, !tbaa !3
  %6 = getelementptr inbounds nuw i8, ptr %0, i64 21592
  store i32 0, ptr %6, align 8, !tbaa !74
  ret i64 0
}